; Function Attrs: mustprogress uwtable
define noundef zeroext i1 @_ZNK10open_spiel9solitaire4MoveltERKS1_(ptr nocapture noundef nonnull readonly align 4 dereferenceable(40) %0, ptr nocapture noundef nonnull readonly align 4 dereferenceable(40) %1) local_unnamed_addr #3 align 2 {
  %3 = getelementptr inbounds nuw i8, ptr %0, i64 12
  %4 = load i8, ptr %3, align 4
  %5 = trunc i8 %4 to i1
  br i1 %5, label %_ZNK10open_spiel9solitaire4Card8GetIndexEv.exit, label %6

6:                                                ; preds = %2
  %7 = load i32, ptr %0, align 4
  %8 = getelementptr inbounds nuw i8, ptr %0, i64 4
  %9 = load i32, ptr %8, align 4
  %10 = tail call noundef i32 @_ZN10open_spiel9solitaire12GetCardIndexENS0_8RankTypeENS0_8SuitTypeE(i32 noundef %7, i32 noundef %9)
  %11 = mul nsw i32 %10, 100
  br label %_ZNK10open_spiel9solitaire4Card8GetIndexEv.exit

_ZNK10open_spiel9solitaire4Card8GetIndexEv.exit:  ; preds = %2, %6
  %12 = phi i32 [ %11, %6 ], [ 9900, %2 ]
  %13 = getelementptr inbounds i8, ptr %0, i64 32
  %14 = load i8, ptr %13, align 4
  %15 = trunc i8 %14 to i1
  br i1 %15, label %_ZNK10open_spiel9solitaire4Card8GetIndexEv.exit4, label %16

16:                                               ; preds = %_ZNK10open_spiel9solitaire4Card8GetIndexEv.exit
  %17 = getelementptr inbounds nuw i8, ptr %0, i64 20
  %18 = load i32, ptr %17, align 4
  %19 = getelementptr inbounds i8, ptr %0, i64 24
  %20 = load i32, ptr %19, align 4
  %21 = tail call noundef i32 @_ZN10open_spiel9solitaire12GetCardIndexENS0_8RankTypeENS0_8SuitTypeE(i32 noundef %18, i32 noundef %20)
  br label %_ZNK10open_spiel9solitaire4Card8GetIndexEv.exit4

_ZNK10open_spiel9solitaire4Card8GetIndexEv.exit4: ; preds = %_ZNK10open_spiel9solitaire4Card8GetIndexEv.exit, %16
  %22 = phi i32 [ %21, %16 ], [ 99, %_ZNK10open_spiel9solitaire4Card8GetIndexEv.exit ]
  %23 = getelementptr inbounds nuw i8, ptr %1, i64 12
  %24 = load i8, ptr %23, align 4
  %25 = trunc i8 %24 to i1
  br i1 %25, label %_ZNK10open_spiel9solitaire4Card8GetIndexEv.exit5, label %26

26:                                               ; preds = %_ZNK10open_spiel9solitaire4Card8GetIndexEv.exit4
  %27 = load i32, ptr %1, align 4
  %28 = getelementptr inbounds nuw i8, ptr %1, i64 4
  %29 = load i32, ptr %28, align 4
  %30 = tail call noundef i32 @_ZN10open_spiel9solitaire12GetCardIndexENS0_8RankTypeENS0_8SuitTypeE(i32 noundef %27, i32 noundef %29)
  %31 = mul nsw i32 %30, 100
  br label %_ZNK10open_spiel9solitaire4Card8GetIndexEv.exit5

_ZNK10open_spiel9solitaire4Card8GetIndexEv.exit5: ; preds = %_ZNK10open_spiel9solitaire4Card8GetIndexEv.exit4, %26
  %32 = phi i32 [ %31, %26 ], [ 9900, %_ZNK10open_spiel9solitaire4Card8GetIndexEv.exit4 ]
  %33 = getelementptr inbounds i8, ptr %1, i64 32
  %34 = load i8, ptr %33, align 4
  %35 = trunc i8 %34 to i1
  br i1 %35, label %_ZNK10open_spiel9solitaire4Card8GetIndexEv.exit6, label %36

36:                                               ; preds = %_ZNK10open_spiel9solitaire4Card8GetIndexEv.exit5
  %37 = getelementptr inbounds nuw i8, ptr %1, i64 20
  %38 = load i32, ptr %37, align 4
  %39 = getelementptr inbounds i8, ptr %1, i64 24
  %40 = load i32, ptr %39, align 4
  %41 = tail call noundef i32 @_ZN10open_spiel9solitaire12GetCardIndexENS0_8RankTypeENS0_8SuitTypeE(i32 noundef %38, i32 noundef %40)
  br label %_ZNK10open_spiel9solitaire4Card8GetIndexEv.exit6

_ZNK10open_spiel9solitaire4Card8GetIndexEv.exit6: ; preds = %_ZNK10open_spiel9solitaire4Card8GetIndexEv.exit5, %36
  %42 = phi i32 [ %41, %36 ], [ 99, %_ZNK10open_spiel9solitaire4Card8GetIndexEv.exit5 ]
  %43 = add nsw i32 %22, %12
  %44 = add nsw i32 %42, %32
  %45 = icmp slt i32 %43, %44
  ret i1 %45
}